target datalayout = "e-m:e-p270:32:32-p271:32:32-p272:64:64-i64:64-i128:128-f80:128-n8:16:32:64-S128"
target triple = "x86_64-pc-linux-gnu"

; Function Attrs: mustprogress uwtable
define void @_ZN6duckdb12ColumnReader6SelectEmPhS1_RNS_6VectorERKNS_15SelectionVectorEm(ptr noundef nonnull align 8 dereferenceable(544) %0, i64 noundef %1, ptr noundef %2, ptr noundef %3, ptr noundef nonnull align 8 dereferenceable(104) %4, ptr noundef nonnull align 8 dereferenceable(24) %5, i64 noundef %6) unnamed_addr #4 align 2 {
  %8 = alloca ptr, align 8
  %9 = alloca i64, align 8
  %10 = alloca ptr, align 8
  %11 = alloca ptr, align 8
  %12 = alloca ptr, align 8
  %13 = alloca ptr, align 8
  %14 = alloca i64, align 8
  store ptr %0, ptr %8, align 8, !tbaa !3
  store i64 %1, ptr %9, align 8, !tbaa !245
  store ptr %2, ptr %10, align 8, !tbaa !257
  store ptr %3, ptr %11, align 8, !tbaa !257
  store ptr %4, ptr %12, align 8, !tbaa !263
  store ptr %5, ptr %13, align 8, !tbaa !264
  store i64 %6, ptr %14, align 8, !tbaa !245
  %15 = load ptr, ptr %8, align 8
  %16 = load ptr, ptr %15, align 8, !tbaa !12
  %17 = getelementptr inbounds ptr, ptr %16, i64 12
  %18 = load ptr, ptr %17, align 8
  %19 = call noundef zeroext i1 %18(ptr noundef nonnull align 8 dereferenceable(544) %15)
  br i1 %19, label %20, label %31

20:                                               ; preds = %7
  %21 = load i64, ptr %14, align 8, !tbaa !245
  %22 = load i64, ptr %9, align 8, !tbaa !245
  %23 = icmp ult i64 %21, %22
  br i1 %23, label %24, label %31

24:                                               ; preds = %20
  %25 = load i64, ptr %9, align 8, !tbaa !245
  %26 = load ptr, ptr %10, align 8, !tbaa !257
  %27 = load ptr, ptr %11, align 8, !tbaa !257
  %28 = load ptr, ptr %12, align 8, !tbaa !263
  %29 = load ptr, ptr %13, align 8, !tbaa !264
  %30 = load i64, ptr %14, align 8, !tbaa !245
  call void @_ZN6duckdb12ColumnReader12DirectSelectEmPhS1_RNS_6VectorERKNS_15SelectionVectorEm(ptr noundef nonnull align 8 dereferenceable(544) %15, i64 noundef %25, ptr noundef %26, ptr noundef %27, ptr noundef nonnull align 8 dereferenceable(104) %28, ptr noundef nonnull align 8 dereferenceable(24) %29, i64 noundef %30)
  br label %40

31:                                               ; preds = %20, %7
  %32 = load i64, ptr %9, align 8, !tbaa !245
  %33 = load ptr, ptr %10, align 8, !tbaa !257
  %34 = load ptr, ptr %11, align 8, !tbaa !257
  %35 = load ptr, ptr %12, align 8, !tbaa !263
  %36 = load ptr, ptr %15, align 8, !tbaa !12
  %37 = getelementptr inbounds ptr, ptr %36, i64 3
  %38 = load ptr, ptr %37, align 8
  %39 = call noundef i64 %38(ptr noundef nonnull align 8 dereferenceable(544) %15, i64 noundef %32, ptr noundef %33, ptr noundef %34, ptr noundef nonnull align 8 dereferenceable(104) %35)
  br label %40

40:                                               ; preds = %31, %24
  ret void
}