; Function Attrs: mustprogress uwtable
define void @_ZN6duckdb12ColumnReader6SelectEmPhS1_RNS_6VectorERKNS_15SelectionVectorEm(ptr noundef nonnull align 8 dereferenceable(544) %0, i64 noundef %1, ptr noundef %2, ptr noundef %3, ptr noundef nonnull align 8 dereferenceable(104) %4, ptr noundef nonnull align 8 dereferenceable(24) %5, i64 noundef %6) unnamed_addr #3 align 2 {
  %8 = load ptr, ptr %0, align 8, !tbaa !3
  %9 = getelementptr inbounds nuw i8, ptr %8, i64 96
  %10 = load ptr, ptr %9, align 8
  %11 = tail call noundef zeroext i1 %10(ptr noundef nonnull align 8 dereferenceable(544) %0)
  %12 = icmp ult i64 %6, %1
  %or.cond = and i1 %12, %11
  br i1 %or.cond, label %13, label %14

13:                                               ; preds = %7
  tail call void @_ZN6duckdb12ColumnReader12DirectSelectEmPhS1_RNS_6VectorERKNS_15SelectionVectorEm(ptr noundef nonnull align 8 dereferenceable(544) %0, i64 noundef %1, ptr noundef %2, ptr noundef %3, ptr noundef nonnull align 8 dereferenceable(104) %4, ptr noundef nonnull align 8 dereferenceable(24) %5, i64 noundef %6)
  br label %19

14:                                               ; preds = %7
  %15 = load ptr, ptr %0, align 8, !tbaa !3
  %16 = getelementptr inbounds nuw i8, ptr %15, i64 24
  %17 = load ptr, ptr %16, align 8
  %18 = tail call noundef i64 %17(ptr noundef nonnull align 8 dereferenceable(544) %0, i64 noundef %1, ptr noundef %2, ptr noundef %3, ptr noundef nonnull align 8 dereferenceable(104) %4)
  br label %19

19:                                               ; preds = %14, %13
  ret void
}